target datalayout = "e-m:e-p270:32:32-p271:32:32-p272:64:64-i64:64-i128:128-f80:128-n8:16:32:64-S128"
target triple = "x86_64-pc-linux-gnu"

%struct.InterpFilterParams = type { ptr, i16, i8 }
%struct.ConvolveParams = type { i32, ptr, i32, i32, i32, i32, i32, i32, i32, i32 }

; Function Attrs: nounwind uwtable
define internal i32 @clamp(i32 noundef %0, i32 noundef %1, i32 noundef %2) #0 {
  %4 = alloca i32, align 4
  %5 = alloca i32, align 4
  %6 = alloca i32, align 4
  store i32 %0, ptr %4, align 4
  store i32 %1, ptr %5, align 4
  store i32 %2, ptr %6, align 4
  %7 = load i32, ptr %4, align 4
  %8 = load i32, ptr %5, align 4
  %9 = icmp slt i32 %7, %8
  br i1 %9, label %10, label %12

10:                                               ; preds = %3
  %11 = load i32, ptr %5, align 4
  br label %22

12:                                               ; preds = %3
  %13 = load i32, ptr %4, align 4
  %14 = load i32, ptr %6, align 4
  %15 = icmp sgt i32 %13, %14
  br i1 %15, label %16, label %18

16:                                               ; preds = %12
  %17 = load i32, ptr %6, align 4
  br label %20

18:                                               ; preds = %12
  %19 = load i32, ptr %4, align 4
  br label %20

20:                                               ; preds = %18, %16
  %21 = phi i32 [ %17, %16 ], [ %19, %18 ]
  br label %22

22:                                               ; preds = %20, %10
  %23 = phi i32 [ %11, %10 ], [ %21, %20 ]
  ret i32 %23
}

; Function Attrs: nounwind uwtable
define internal zeroext i16 @clip_pixel_highbd(i32 noundef %0, i32 noundef %1) #0 {
  %3 = alloca i16, align 2
  %4 = alloca i32, align 4
  %5 = alloca i32, align 4
  store i32 %0, ptr %4, align 4
  store i32 %1, ptr %5, align 4
  %6 = load i32, ptr %5, align 4
  switch i32 %6, label %8 [
    i32 8, label %7
    i32 10, label %12
    i32 12, label %16
  ]

7:                                                ; preds = %2
  br label %8

8:                                                ; preds = %7, %2
  %9 = load i32, ptr %4, align 4
  %10 = call i32 @clamp(i32 noundef %9, i32 noundef 0, i32 noundef 255)
  %11 = trunc i32 %10 to i16
  store i16 %11, ptr %3, align 2
  br label %20

12:                                               ; preds = %2
  %13 = load i32, ptr %4, align 4
  %14 = call i32 @clamp(i32 noundef %13, i32 noundef 0, i32 noundef 1023)
  %15 = trunc i32 %14 to i16
  store i16 %15, ptr %3, align 2
  br label %20

16:                                               ; preds = %2
  %17 = load i32, ptr %4, align 4
  %18 = call i32 @clamp(i32 noundef %17, i32 noundef 0, i32 noundef 4095)
  %19 = trunc i32 %18 to i16
  store i16 %19, ptr %3, align 2
  br label %20

20:                                               ; preds = %16, %12, %8
  %21 = load i16, ptr %3, align 2
  ret i16 %21
}

; Function Attrs: nounwind uwtable
define internal ptr @av1_get_interp_filter_subpel_kernel(ptr noundef %0, i32 noundef %1) #0 {
  %3 = alloca ptr, align 8
  %4 = alloca i32, align 4
  store ptr %0, ptr %3, align 8
  store i32 %1, ptr %4, align 4
  %5 = load ptr, ptr %3, align 8
  %6 = getelementptr inbounds nuw %struct.InterpFilterParams, ptr %5, i32 0, i32 0
  %7 = load ptr, ptr %6, align 8
  %8 = load ptr, ptr %3, align 8
  %9 = getelementptr inbounds nuw %struct.InterpFilterParams, ptr %8, i32 0, i32 1
  %10 = load i16, ptr %9, align 8
  %11 = zext i16 %10 to i32
  %12 = load i32, ptr %4, align 4
  %13 = mul nsw i32 %11, %12
  %14 = sext i32 %13 to i64
  %15 = getelementptr inbounds i16, ptr %7, i64 %14
  ret ptr %15
}

; Function Attrs: nounwind uwtable
define hidden void @av1_highbd_convolve_2d_sr_c(ptr noundef %0, i32 noundef %1, ptr noundef %2, i32 noundef %3, i32 noundef %4, i32 noundef %5, ptr noundef %6, ptr noundef %7, i32 noundef %8, i32 noundef %9, ptr noundef %10, i32 noundef %11) #0 {
  %13 = alloca ptr, align 8
  %14 = alloca i32, align 4
  %15 = alloca ptr, align 8
  %16 = alloca i32, align 4
  %17 = alloca i32, align 4
  %18 = alloca i32, align 4
  %19 = alloca ptr, align 8
  %20 = alloca ptr, align 8
  %21 = alloca i32, align 4
  %22 = alloca i32, align 4
  %23 = alloca ptr, align 8
  %24 = alloca i32, align 4
  %25 = alloca [17792 x i16], align 16
  %26 = alloca i32, align 4
  %27 = alloca i32, align 4
  %28 = alloca i32, align 4
  %29 = alloca i32, align 4
  %30 = alloca i32, align 4
  %31 = alloca ptr, align 8
  %32 = alloca ptr, align 8
  %33 = alloca i32, align 4
  %34 = alloca i32, align 4
  %35 = alloca i32, align 4
  %36 = alloca i32, align 4
  %37 = alloca ptr, align 8
  %38 = alloca ptr, align 8
  %39 = alloca i32, align 4
  %40 = alloca i32, align 4
  %41 = alloca i32, align 4
  %42 = alloca i32, align 4
  %43 = alloca i32, align 4
  %44 = alloca i32, align 4
  store ptr %0, ptr %13, align 8
  store i32 %1, ptr %14, align 4
  store ptr %2, ptr %15, align 8
  store i32 %3, ptr %16, align 4
  store i32 %4, ptr %17, align 4
  store i32 %5, ptr %18, align 4
  store ptr %6, ptr %19, align 8
  store ptr %7, ptr %20, align 8
  store i32 %8, ptr %21, align 4
  store i32 %9, ptr %22, align 4
  store ptr %10, ptr %23, align 8
  store i32 %11, ptr %24, align 4
  %45 = load i32, ptr %18, align 4
  %46 = load ptr, ptr %20, align 8
  %47 = getelementptr inbounds nuw %struct.InterpFilterParams, ptr %46, i32 0, i32 1
  %48 = load i16, ptr %47, align 8
  %49 = zext i16 %48 to i32
  %50 = add nsw i32 %45, %49
  %51 = sub nsw i32 %50, 1
  store i32 %51, ptr %26, align 4
  %52 = load i32, ptr %17, align 4
  store i32 %52, ptr %27, align 4
  %53 = load ptr, ptr %20, align 8
  %54 = getelementptr inbounds nuw %struct.InterpFilterParams, ptr %53, i32 0, i32 1
  %55 = load i16, ptr %54, align 8
  %56 = zext i16 %55 to i32
  %57 = sdiv i32 %56, 2
  %58 = sub nsw i32 %57, 1
  store i32 %58, ptr %28, align 4
  %59 = load ptr, ptr %19, align 8
  %60 = getelementptr inbounds nuw %struct.InterpFilterParams, ptr %59, i32 0, i32 1
  %61 = load i16, ptr %60, align 8
  %62 = zext i16 %61 to i32
  %63 = sdiv i32 %62, 2
  %64 = sub nsw i32 %63, 1
  store i32 %64, ptr %29, align 4
  %65 = load ptr, ptr %23, align 8
  %66 = getelementptr inbounds nuw %struct.ConvolveParams, ptr %65, i32 0, i32 3
  %67 = load i32, ptr %66, align 4
  %68 = sub nsw i32 14, %67
  %69 = load ptr, ptr %23, align 8
  %70 = getelementptr inbounds nuw %struct.ConvolveParams, ptr %69, i32 0, i32 4
  %71 = load i32, ptr %70, align 8
  %72 = sub nsw i32 %68, %71
  store i32 %72, ptr %30, align 4
  %73 = load ptr, ptr %13, align 8
  %74 = load i32, ptr %28, align 4
  %75 = load i32, ptr %14, align 4
  %76 = mul nsw i32 %74, %75
  %77 = sext i32 %76 to i64
  %78 = sub i64 0, %77
  %79 = getelementptr inbounds i16, ptr %73, i64 %78
  store ptr %79, ptr %31, align 8
  %80 = load ptr, ptr %19, align 8
  %81 = load i32, ptr %21, align 4
  %82 = and i32 %81, 15
  %83 = call ptr @av1_get_interp_filter_subpel_kernel(ptr noundef %80, i32 noundef %82)
  store ptr %83, ptr %32, align 8
  store i32 0, ptr %33, align 4
  br label %84

84:                                               ; preds = %156, %12
  %85 = load i32, ptr %33, align 4
  %86 = load i32, ptr %26, align 4
  %87 = icmp slt i32 %85, %86
  br i1 %87, label %88, label %159

88:                                               ; preds = %84
  store i32 0, ptr %34, align 4
  br label %89

89:                                               ; preds = %152, %88
  %90 = load i32, ptr %34, align 4
  %91 = load i32, ptr %17, align 4
  %92 = icmp slt i32 %90, %91
  br i1 %92, label %93, label %155

93:                                               ; preds = %89
  %94 = load i32, ptr %24, align 4
  %95 = add nsw i32 %94, 7
  %96 = sub nsw i32 %95, 1
  %97 = shl i32 1, %96
  store i32 %97, ptr %35, align 4
  store i32 0, ptr %36, align 4
  br label %98

98:                                               ; preds = %129, %93
  %99 = load i32, ptr %36, align 4
  %100 = load ptr, ptr %19, align 8
  %101 = getelementptr inbounds nuw %struct.InterpFilterParams, ptr %100, i32 0, i32 1
  %102 = load i16, ptr %101, align 8
  %103 = zext i16 %102 to i32
  %104 = icmp slt i32 %99, %103
  br i1 %104, label %105, label %132

105:                                              ; preds = %98
  %106 = load ptr, ptr %32, align 8
  %107 = load i32, ptr %36, align 4
  %108 = sext i32 %107 to i64
  %109 = getelementptr inbounds i16, ptr %106, i64 %108
  %110 = load i16, ptr %109, align 2
  %111 = sext i16 %110 to i32
  %112 = load ptr, ptr %31, align 8
  %113 = load i32, ptr %33, align 4
  %114 = load i32, ptr %14, align 4
  %115 = mul nsw i32 %113, %114
  %116 = load i32, ptr %34, align 4
  %117 = add nsw i32 %115, %116
  %118 = load i32, ptr %29, align 4
  %119 = sub nsw i32 %117, %118
  %120 = load i32, ptr %36, align 4
  %121 = add nsw i32 %119, %120
  %122 = sext i32 %121 to i64
  %123 = getelementptr inbounds i16, ptr %112, i64 %122
  %124 = load i16, ptr %123, align 2
  %125 = zext i16 %124 to i32
  %126 = mul nsw i32 %111, %125
  %127 = load i32, ptr %35, align 4
  %128 = add nsw i32 %127, %126
  store i32 %128, ptr %35, align 4
  br label %129

129:                                              ; preds = %105
  %130 = load i32, ptr %36, align 4
  %131 = add nsw i32 %130, 1
  store i32 %131, ptr %36, align 4
  br label %98, !llvm.loop !55

132:                                              ; preds = %98
  %133 = load i32, ptr %35, align 4
  %134 = load ptr, ptr %23, align 8
  %135 = getelementptr inbounds nuw %struct.ConvolveParams, ptr %134, i32 0, i32 3
  %136 = load i32, ptr %135, align 4
  %137 = shl i32 1, %136
  %138 = ashr i32 %137, 1
  %139 = add nsw i32 %133, %138
  %140 = load ptr, ptr %23, align 8
  %141 = getelementptr inbounds nuw %struct.ConvolveParams, ptr %140, i32 0, i32 3
  %142 = load i32, ptr %141, align 4
  %143 = ashr i32 %139, %142
  %144 = trunc i32 %143 to i16
  %145 = load i32, ptr %33, align 4
  %146 = load i32, ptr %27, align 4
  %147 = mul nsw i32 %145, %146
  %148 = load i32, ptr %34, align 4
  %149 = add nsw i32 %147, %148
  %150 = sext i32 %149 to i64
  %151 = getelementptr inbounds [17792 x i16], ptr %25, i64 0, i64 %150
  store i16 %144, ptr %151, align 2
  br label %152

152:                                              ; preds = %132
  %153 = load i32, ptr %34, align 4
  %154 = add nsw i32 %153, 1
  store i32 %154, ptr %34, align 4
  br label %89, !llvm.loop !56

155:                                              ; preds = %89
  br label %156

156:                                              ; preds = %155
  %157 = load i32, ptr %33, align 4
  %158 = add nsw i32 %157, 1
  store i32 %158, ptr %33, align 4
  br label %84, !llvm.loop !57

159:                                              ; preds = %84
  %160 = getelementptr inbounds [17792 x i16], ptr %25, i64 0, i64 0
  %161 = load i32, ptr %28, align 4
  %162 = load i32, ptr %27, align 4
  %163 = mul nsw i32 %161, %162
  %164 = sext i32 %163 to i64
  %165 = getelementptr inbounds i16, ptr %160, i64 %164
  store ptr %165, ptr %37, align 8
  %166 = load ptr, ptr %20, align 8
  %167 = load i32, ptr %22, align 4
  %168 = and i32 %167, 15
  %169 = call ptr @av1_get_interp_filter_subpel_kernel(ptr noundef %166, i32 noundef %168)
  store ptr %169, ptr %38, align 8
  %170 = load i32, ptr %24, align 4
  %171 = add nsw i32 %170, 14
  %172 = load ptr, ptr %23, align 8
  %173 = getelementptr inbounds nuw %struct.ConvolveParams, ptr %172, i32 0, i32 3
  %174 = load i32, ptr %173, align 4
  %175 = sub nsw i32 %171, %174
  store i32 %175, ptr %39, align 4
  store i32 0, ptr %40, align 4
  br label %176

176:                                              ; preds = %270, %159
  %177 = load i32, ptr %40, align 4
  %178 = load i32, ptr %18, align 4
  %179 = icmp slt i32 %177, %178
  br i1 %179, label %180, label %273

180:                                              ; preds = %176
  store i32 0, ptr %41, align 4
  br label %181

181:                                              ; preds = %266, %180
  %182 = load i32, ptr %41, align 4
  %183 = load i32, ptr %17, align 4
  %184 = icmp slt i32 %182, %183
  br i1 %184, label %185, label %269

185:                                              ; preds = %181
  %186 = load i32, ptr %39, align 4
  %187 = shl i32 1, %186
  store i32 %187, ptr %42, align 4
  store i32 0, ptr %43, align 4
  br label %188

188:                                              ; preds = %219, %185
  %189 = load i32, ptr %43, align 4
  %190 = load ptr, ptr %20, align 8
  %191 = getelementptr inbounds nuw %struct.InterpFilterParams, ptr %190, i32 0, i32 1
  %192 = load i16, ptr %191, align 8
  %193 = zext i16 %192 to i32
  %194 = icmp slt i32 %189, %193
  br i1 %194, label %195, label %222

195:                                              ; preds = %188
  %196 = load ptr, ptr %38, align 8
  %197 = load i32, ptr %43, align 4
  %198 = sext i32 %197 to i64
  %199 = getelementptr inbounds i16, ptr %196, i64 %198
  %200 = load i16, ptr %199, align 2
  %201 = sext i16 %200 to i32
  %202 = load ptr, ptr %37, align 8
  %203 = load i32, ptr %40, align 4
  %204 = load i32, ptr %28, align 4
  %205 = sub nsw i32 %203, %204
  %206 = load i32, ptr %43, align 4
  %207 = add nsw i32 %205, %206
  %208 = load i32, ptr %27, align 4
  %209 = mul nsw i32 %207, %208
  %210 = load i32, ptr %41, align 4
  %211 = add nsw i32 %209, %210
  %212 = sext i32 %211 to i64
  %213 = getelementptr inbounds i16, ptr %202, i64 %212
  %214 = load i16, ptr %213, align 2
  %215 = sext i16 %214 to i32
  %216 = mul nsw i32 %201, %215
  %217 = load i32, ptr %42, align 4
  %218 = add nsw i32 %217, %216
  store i32 %218, ptr %42, align 4
  br label %219

219:                                              ; preds = %195
  %220 = load i32, ptr %43, align 4
  %221 = add nsw i32 %220, 1
  store i32 %221, ptr %43, align 4
  br label %188, !llvm.loop !58

222:                                              ; preds = %188
  %223 = load i32, ptr %42, align 4
  %224 = load ptr, ptr %23, align 8
  %225 = getelementptr inbounds nuw %struct.ConvolveParams, ptr %224, i32 0, i32 4
  %226 = load i32, ptr %225, align 8
  %227 = shl i32 1, %226
  %228 = ashr i32 %227, 1
  %229 = add nsw i32 %223, %228
  %230 = load ptr, ptr %23, align 8
  %231 = getelementptr inbounds nuw %struct.ConvolveParams, ptr %230, i32 0, i32 4
  %232 = load i32, ptr %231, align 8
  %233 = ashr i32 %229, %232
  %234 = load i32, ptr %39, align 4
  %235 = load ptr, ptr %23, align 8
  %236 = getelementptr inbounds nuw %struct.ConvolveParams, ptr %235, i32 0, i32 4
  %237 = load i32, ptr %236, align 8
  %238 = sub nsw i32 %234, %237
  %239 = shl i32 1, %238
  %240 = load i32, ptr %39, align 4
  %241 = load ptr, ptr %23, align 8
  %242 = getelementptr inbounds nuw %struct.ConvolveParams, ptr %241, i32 0, i32 4
  %243 = load i32, ptr %242, align 8
  %244 = sub nsw i32 %240, %243
  %245 = sub nsw i32 %244, 1
  %246 = shl i32 1, %245
  %247 = add nsw i32 %239, %246
  %248 = sub nsw i32 %233, %247
  store i32 %248, ptr %44, align 4
  %249 = load i32, ptr %44, align 4
  %250 = load i32, ptr %30, align 4
  %251 = shl i32 1, %250
  %252 = ashr i32 %251, 1
  %253 = add nsw i32 %249, %252
  %254 = load i32, ptr %30, align 4
  %255 = ashr i32 %253, %254
  %256 = load i32, ptr %24, align 4
  %257 = call zeroext i16 @clip_pixel_highbd(i32 noundef %255, i32 noundef %256)
  %258 = load ptr, ptr %15, align 8
  %259 = load i32, ptr %40, align 4
  %260 = load i32, ptr %16, align 4
  %261 = mul nsw i32 %259, %260
  %262 = load i32, ptr %41, align 4
  %263 = add nsw i32 %261, %262
  %264 = sext i32 %263 to i64
  %265 = getelementptr inbounds i16, ptr %258, i64 %264
  store i16 %257, ptr %265, align 2
  br label %266

266:                                              ; preds = %222
  %267 = load i32, ptr %41, align 4
  %268 = add nsw i32 %267, 1
  store i32 %268, ptr %41, align 4
  br label %181, !llvm.loop !59

269:                                              ; preds = %181
  br label %270

270:                                              ; preds = %269
  %271 = load i32, ptr %40, align 4
  %272 = add nsw i32 %271, 1
  store i32 %272, ptr %40, align 4
  br label %176, !llvm.loop !60

273:                                              ; preds = %176
  ret void
}