; Function Attrs: nofree norecurse nosync nounwind memory(read, argmem: readwrite, inaccessiblemem: none) uwtable
define hidden void @av1_highbd_convolve_2d_sr_c(ptr noundef readonly captures(none) %0, i32 noundef %1, ptr noundef writeonly captures(none) %2, i32 noundef %3, i32 noundef %4, i32 noundef %5, ptr noundef readonly captures(none) %6, ptr noundef readonly captures(none) %7, i32 noundef %8, i32 noundef %9, ptr noundef readonly captures(none) %10, i32 noundef %11) local_unnamed_addr #1 {
  %13 = alloca [17792 x i16], align 16
  %14 = getelementptr inbounds nuw i8, ptr %7, i64 8
  %15 = load i16, ptr %14, align 8
  %16 = zext i16 %15 to i32
  %17 = add i32 %5, -1
  %18 = add i32 %17, %16
  %19 = lshr i32 %16, 1
  %20 = add nsw i32 %19, -1
  %21 = getelementptr inbounds nuw i8, ptr %6, i64 8
  %22 = load i16, ptr %21, align 8
  %23 = getelementptr inbounds nuw i8, ptr %10, i64 20
  %24 = load i32, ptr %23, align 4
  %25 = getelementptr inbounds nuw i8, ptr %10, i64 24
  %26 = load i32, ptr %25, align 8
  %27 = add i32 %24, %26
  %28 = sub i32 14, %27
  %29 = mul nsw i32 %20, %1
  %30 = sext i32 %29 to i64
  %31 = sub nsw i64 0, %30
  %32 = getelementptr inbounds i16, ptr %0, i64 %31
  %33 = and i32 %8, 15
  %.val87 = load ptr, ptr %6, align 8
  %34 = zext i16 %22 to i32
  %35 = mul nuw nsw i32 %33, %34
  %36 = zext nneg i32 %35 to i64
  %37 = getelementptr inbounds nuw i16, ptr %.val87, i64 %36
  %38 = icmp sgt i32 %18, 0
  br i1 %38, label %.preheader95.lr.ph, label %._crit_edge

.preheader95.lr.ph:                               ; preds = %12
  %39 = lshr i16 %22, 1
  %40 = zext nneg i16 %39 to i32
  %41 = icmp sgt i32 %4, 0
  %42 = add nsw i32 %11, 6
  %43 = shl nuw i32 1, %42
  %44 = shl nuw i32 1, %24
  %45 = ashr i32 %44, 1
  %46 = add nsw i32 %43, %45
  %47 = ashr i32 %46, %24
  %48 = trunc i32 %47 to i16
  br i1 %41, label %.preheader95.lr.ph.split.us, label %._crit_edge

.preheader95.lr.ph.split.us:                      ; preds = %.preheader95.lr.ph
  %.not = icmp eq i16 %22, 0
  %49 = zext nneg i32 %4 to i64
  %wide.trip.count139 = zext nneg i32 %18 to i64
  br i1 %.not, label %.preheader95.us, label %.preheader95.us.us.preheader

.preheader95.us.us.preheader:                     ; preds = %.preheader95.lr.ph.split.us
  %wide.trip.count124 = zext nneg i32 %4 to i64
  %wide.trip.count = zext i16 %22 to i64
  br label %.preheader95.us.us

.preheader95.us.us:                               ; preds = %.preheader95.us.us.preheader, %._crit_edge100.split.us.us.us
  %indvars.iv126 = phi i64 [ 0, %.preheader95.us.us.preheader ], [ %indvars.iv.next127, %._crit_edge100.split.us.us.us ]
  %50 = trunc i64 %indvars.iv126 to i32
  %51 = mul i32 %1, %50
  %reass.sub = sub i32 %51, %40
  %52 = add i32 %reass.sub, 1
  %53 = mul nuw nsw i64 %indvars.iv126, %49
  br label %.lr.ph.us.us.us

.lr.ph.us.us.us:                                  ; preds = %._crit_edge.us.us.us, %.preheader95.us.us
  %indvars.iv121 = phi i64 [ %indvars.iv.next122, %._crit_edge.us.us.us ], [ 0, %.preheader95.us.us ]
  %54 = trunc nuw nsw i64 %indvars.iv121 to i32
  %55 = add i32 %52, %54
  %56 = sext i32 %55 to i64
  %invariant.gep = getelementptr i16, ptr %32, i64 %56
  br label %57

57:                                               ; preds = %57, %.lr.ph.us.us.us
  %indvars.iv = phi i64 [ %indvars.iv.next, %57 ], [ 0, %.lr.ph.us.us.us ]
  %.08197.us.us.us = phi i32 [ %64, %57 ], [ %43, %.lr.ph.us.us.us ]
  %58 = getelementptr inbounds nuw i16, ptr %37, i64 %indvars.iv
  %59 = load i16, ptr %58, align 2
  %60 = sext i16 %59 to i32
  %gep = getelementptr i16, ptr %invariant.gep, i64 %indvars.iv
  %61 = load i16, ptr %gep, align 2
  %62 = zext i16 %61 to i32
  %63 = mul nsw i32 %62, %60
  %64 = add nsw i32 %63, %.08197.us.us.us
  %indvars.iv.next = add nuw nsw i64 %indvars.iv, 1
  %exitcond.not = icmp eq i64 %indvars.iv.next, %wide.trip.count
  br i1 %exitcond.not, label %._crit_edge.us.us.us, label %57, !llvm.loop !55

._crit_edge.us.us.us:                             ; preds = %57
  %65 = add nsw i32 %64, %45
  %66 = ashr i32 %65, %24
  %67 = trunc i32 %66 to i16
  %68 = add nuw nsw i64 %indvars.iv121, %53
  %69 = getelementptr inbounds nuw [17792 x i16], ptr %13, i64 0, i64 %68
  store i16 %67, ptr %69, align 2
  %indvars.iv.next122 = add nuw nsw i64 %indvars.iv121, 1
  %exitcond125.not = icmp eq i64 %indvars.iv.next122, %wide.trip.count124
  br i1 %exitcond125.not, label %._crit_edge100.split.us.us.us, label %.lr.ph.us.us.us, !llvm.loop !56

._crit_edge100.split.us.us.us:                    ; preds = %._crit_edge.us.us.us
  %indvars.iv.next127 = add nuw nsw i64 %indvars.iv126, 1
  %exitcond130.not = icmp eq i64 %indvars.iv.next127, %wide.trip.count139
  br i1 %exitcond130.not, label %._crit_edge, label %.preheader95.us.us, !llvm.loop !57

.preheader95.us:                                  ; preds = %.preheader95.lr.ph.split.us, %._crit_edge100.split.us103
  %indvars.iv136 = phi i64 [ %indvars.iv.next137, %._crit_edge100.split.us103 ], [ 0, %.preheader95.lr.ph.split.us ]
  %70 = mul nuw nsw i64 %indvars.iv136, %49
  br label %71

71:                                               ; preds = %.preheader95.us, %71
  %indvars.iv131 = phi i64 [ 0, %.preheader95.us ], [ %indvars.iv.next132, %71 ]
  %72 = add nuw nsw i64 %indvars.iv131, %70
  %73 = getelementptr inbounds nuw [17792 x i16], ptr %13, i64 0, i64 %72
  store i16 %48, ptr %73, align 2
  %indvars.iv.next132 = add nuw nsw i64 %indvars.iv131, 1
  %exitcond135.not = icmp eq i64 %indvars.iv.next132, %49
  br i1 %exitcond135.not, label %._crit_edge100.split.us103, label %71, !llvm.loop !56

._crit_edge100.split.us103:                       ; preds = %71
  %indvars.iv.next137 = add nuw nsw i64 %indvars.iv136, 1
  %exitcond140.not = icmp eq i64 %indvars.iv.next137, %wide.trip.count139
  br i1 %exitcond140.not, label %._crit_edge, label %.preheader95.us, !llvm.loop !57

._crit_edge:                                      ; preds = %._crit_edge100.split.us.us.us, %._crit_edge100.split.us103, %.preheader95.lr.ph, %12
  %74 = mul nsw i32 %20, %4
  %75 = sext i32 %74 to i64
  %76 = getelementptr inbounds i16, ptr %13, i64 %75
  %77 = and i32 %9, 15
  %.val = load ptr, ptr %7, align 8
  %78 = mul nuw nsw i32 %77, %16
  %79 = zext nneg i32 %78 to i64
  %80 = getelementptr inbounds nuw i16, ptr %.val, i64 %79
  %81 = add nsw i32 %11, 14
  %82 = sub i32 %81, %24
  %83 = icmp sgt i32 %5, 0
  br i1 %83, label %.preheader.lr.ph, label %._crit_edge113

.preheader.lr.ph:                                 ; preds = %._crit_edge
  %84 = icmp sgt i32 %4, 0
  %85 = shl nuw i32 1, %82
  %86 = shl nuw i32 1, %28
  %87 = ashr i32 %86, 1
  br i1 %84, label %.preheader.us.preheader, label %._crit_edge113

.preheader.us.preheader:                          ; preds = %.preheader.lr.ph
  %88 = zext nneg i32 %4 to i64
  %89 = sext i32 %3 to i64
  %90 = zext nneg i32 %19 to i64
  %wide.trip.count155 = zext nneg i32 %5 to i64
  %wide.trip.count149 = zext nneg i32 %4 to i64
  br label %.preheader.us

.preheader.us:                                    ; preds = %.preheader.us.preheader, %._crit_edge111.us
  %indvars.iv151 = phi i64 [ 0, %.preheader.us.preheader ], [ %indvars.iv.next152, %._crit_edge111.us ]
  %91 = sub nsw i64 %indvars.iv151, %90
  %92 = add nsw i64 %91, 1
  %93 = mul nsw i64 %indvars.iv151, %89
  %invariant.gep161 = getelementptr i16, ptr %2, i64 %93
  br label %94

94:                                               ; preds = %.preheader.us, %clip_pixel_highbd.exit.us
  %indvars.iv146 = phi i64 [ 0, %.preheader.us ], [ %indvars.iv.next147, %clip_pixel_highbd.exit.us ]
  %95 = load i16, ptr %14, align 8
  %.not115 = icmp eq i16 %95, 0
  br i1 %.not115, label %._crit_edge108.us, label %.lr.ph.us.preheader

.lr.ph.us.preheader:                              ; preds = %94
  %wide.trip.count144 = zext i16 %95 to i64
  %invariant.gep159 = getelementptr i16, ptr %76, i64 %indvars.iv146
  br label %.lr.ph.us

._crit_edge108.us:                                ; preds = %.lr.ph.us, %94
  %.077.lcssa.us = phi i32 [ %85, %94 ], [ %122, %.lr.ph.us ]
  %96 = load i32, ptr %25, align 8
  %97 = shl nuw i32 1, %96
  %98 = ashr i32 %97, 1
  %99 = add nsw i32 %98, %.077.lcssa.us
  %100 = ashr i32 %99, %96
  %101 = sub nsw i32 %82, %96
  %.neg.us = shl nsw i32 -1, %101
  %102 = add nsw i32 %101, -1
  %.neg84.us = shl nsw i32 -1, %102
  %.neg85.us = add i32 %.neg.us, %87
  %103 = add i32 %.neg85.us, %.neg84.us
  %104 = add i32 %103, %100
  %105 = ashr i32 %104, %28
  switch i32 %11, label %110 [
    i32 12, label %108
    i32 10, label %106
  ]

106:                                              ; preds = %._crit_edge108.us
  %107 = tail call i32 @llvm.umin.i32(i32 %105, i32 1023)
  br label %clip_pixel_highbd.exit.us

108:                                              ; preds = %._crit_edge108.us
  %109 = tail call i32 @llvm.umin.i32(i32 %105, i32 4095)
  br label %clip_pixel_highbd.exit.us

110:                                              ; preds = %._crit_edge108.us
  %111 = tail call i32 @llvm.umin.i32(i32 %105, i32 255)
  br label %clip_pixel_highbd.exit.us

clip_pixel_highbd.exit.us:                        ; preds = %110, %108, %106
  %.sink.i.us = phi i32 [ %109, %108 ], [ %107, %106 ], [ %111, %110 ]
  %112 = icmp slt i32 %105, 0
  %113 = trunc nuw nsw i32 %.sink.i.us to i16
  %.0.i.us = select i1 %112, i16 0, i16 %113
  %gep162 = getelementptr i16, ptr %invariant.gep161, i64 %indvars.iv146
  store i16 %.0.i.us, ptr %gep162, align 2
  %indvars.iv.next147 = add nuw nsw i64 %indvars.iv146, 1
  %exitcond150.not = icmp eq i64 %indvars.iv.next147, %wide.trip.count149
  br i1 %exitcond150.not, label %._crit_edge111.us, label %94, !llvm.loop !58

.lr.ph.us:                                        ; preds = %.lr.ph.us.preheader, %.lr.ph.us
  %indvars.iv141 = phi i64 [ 0, %.lr.ph.us.preheader ], [ %indvars.iv.next142, %.lr.ph.us ]
  %.077105.us = phi i32 [ %85, %.lr.ph.us.preheader ], [ %122, %.lr.ph.us ]
  %114 = getelementptr inbounds nuw i16, ptr %80, i64 %indvars.iv141
  %115 = load i16, ptr %114, align 2
  %116 = sext i16 %115 to i32
  %117 = add nsw i64 %92, %indvars.iv141
  %118 = mul nsw i64 %117, %88
  %gep160 = getelementptr i16, ptr %invariant.gep159, i64 %118
  %119 = load i16, ptr %gep160, align 2
  %120 = sext i16 %119 to i32
  %121 = mul nsw i32 %120, %116
  %122 = add nsw i32 %121, %.077105.us
  %indvars.iv.next142 = add nuw nsw i64 %indvars.iv141, 1
  %exitcond145.not = icmp eq i64 %indvars.iv.next142, %wide.trip.count144
  br i1 %exitcond145.not, label %._crit_edge108.us, label %.lr.ph.us, !llvm.loop !59

._crit_edge111.us:                                ; preds = %clip_pixel_highbd.exit.us
  %indvars.iv.next152 = add nuw nsw i64 %indvars.iv151, 1
  %exitcond156.not = icmp eq i64 %indvars.iv.next152, %wide.trip.count155
  br i1 %exitcond156.not, label %._crit_edge113, label %.preheader.us, !llvm.loop !60

._crit_edge113:                                   ; preds = %._crit_edge111.us, %.preheader.lr.ph, %._crit_edge
  ret void
}